; Function Attrs: mustprogress nounwind uwtable
define void @_ZN7openvdb5v11_02io10MappedFileD2Ev(ptr nocapture noundef nonnull align 8 dereferenceable(8) %this) unnamed_addr #8 align 2 personality ptr @__gxx_personality_v0 {
entry:
  %0 = load ptr, ptr %this, align 8
  %cmp.not.i = icmp eq ptr %0, null
  br i1 %cmp.not.i, label %_ZNSt10unique_ptrIN7openvdb5v11_02io10MappedFile4ImplESt14default_deleteIS4_EED2Ev.exit, label %_ZNKSt14default_deleteIN7openvdb5v11_02io10MappedFile4ImplEEclEPS4_.exit.i

_ZNKSt14default_deleteIN7openvdb5v11_02io10MappedFile4ImplEEclEPS4_.exit.i: ; preds = %entry
  tail call void @_ZN7openvdb5v11_02io10MappedFile4ImplD2Ev(ptr noundef nonnull align 8 dereferenceable(120) %0) #25
  tail call void @_ZdlPv(ptr noundef nonnull %0) #36
  br label %_ZNSt10unique_ptrIN7openvdb5v11_02io10MappedFile4ImplESt14default_deleteIS4_EED2Ev.exit

_ZNSt10unique_ptrIN7openvdb5v11_02io10MappedFile4ImplESt14default_deleteIS4_EED2Ev.exit: ; preds = %entry, %_ZNKSt14default_deleteIN7openvdb5v11_02io10MappedFile4ImplEEclEPS4_.exit.i
  store ptr null, ptr %this, align 8
  ret void
}